; Function Attrs: nounwind uwtable
define internal fastcc range(i32 0, 2) i32 @r_mark_sU(ptr noundef %0) unnamed_addr #0 {
  %2 = tail call fastcc i32 @r_check_vowel_harmony(ptr noundef %0)
  %.not.not.not = icmp eq i32 %2, 0
  br i1 %.not.not.not, label %r_mark_suffix_with_optional_s_consonant.exit, label %3

3:                                                ; preds = %1
  %4 = tail call i32 @in_grouping_b_U(ptr noundef %0, ptr noundef nonnull @g_U, i32 noundef 105, i32 noundef 305, i32 noundef 0) #3
  %.not = icmp eq i32 %4, 0
  br i1 %.not, label %5, label %r_mark_suffix_with_optional_s_consonant.exit

5:                                                ; preds = %3
  %6 = getelementptr inbounds nuw i8, ptr %0, i64 12
  %7 = load i32, ptr %6, align 4
  %8 = getelementptr inbounds nuw i8, ptr %0, i64 8
  %9 = load i32, ptr %8, align 8
  %.neg60.i = sub i32 %9, %7
  %10 = getelementptr inbounds nuw i8, ptr %0, i64 16
  %11 = load i32, ptr %10, align 8
  %.not.i = icmp sgt i32 %9, %11
  %.pre80.pre81.i = load ptr, ptr %0, align 8
  br i1 %.not.i, label %12, label %20

12:                                               ; preds = %5
  %13 = add nsw i32 %9, -1
  %14 = sext i32 %13 to i64
  %15 = getelementptr inbounds i8, ptr %.pre80.pre81.i, i64 %14
  %16 = load i8, ptr %15, align 1
  %.not58.i = icmp eq i8 %16, 115
  br i1 %.not58.i, label %17, label %20

17:                                               ; preds = %12
  store i32 %13, ptr %8, align 8
  %18 = tail call i32 @in_grouping_b_U(ptr noundef nonnull %0, ptr noundef nonnull @g_vowel, i32 noundef 97, i32 noundef 305, i32 noundef 0) #3
  %.not59.i = icmp eq i32 %18, 0
  %.pre.i = load i32, ptr %6, align 4
  br i1 %.not59.i, label %.thread.i, label %._crit_edge.i

._crit_edge.i:                                    ; preds = %17
  %.pre79.i = load i32, ptr %10, align 8
  %.pre80.pre.i = load ptr, ptr %0, align 8
  br label %20

.thread.i:                                        ; preds = %17
  %.neg.i = sub i32 %13, %7
  %19 = add i32 %.neg.i, %.pre.i
  br label %.critedge.sink.split.i

20:                                               ; preds = %._crit_edge.i, %12, %5
  %.pre80.i = phi ptr [ %.pre80.pre.i, %._crit_edge.i ], [ %.pre80.pre81.i, %5 ], [ %.pre80.pre81.i, %12 ]
  %21 = phi i32 [ %.pre79.i, %._crit_edge.i ], [ %11, %5 ], [ %11, %12 ]
  %22 = phi i32 [ %.pre.i, %._crit_edge.i ], [ %7, %5 ], [ %7, %12 ]
  %23 = add i32 %22, %.neg60.i
  store i32 %23, ptr %8, align 8
  %.not61.i = icmp sgt i32 %23, %21
  br i1 %.not61.i, label %24, label %29

24:                                               ; preds = %20
  %25 = sext i32 %23 to i64
  %26 = getelementptr i8, ptr %.pre80.i, i64 %25
  %27 = getelementptr i8, ptr %26, i64 -1
  %28 = load i8, ptr %27, align 1
  %.not62.i = icmp eq i8 %28, 115
  br i1 %.not62.i, label %r_mark_suffix_with_optional_s_consonant.exit, label %29

29:                                               ; preds = %24, %20
  %30 = tail call i32 @skip_b_utf8(ptr noundef %.pre80.i, i32 noundef %23, i32 noundef %21, i32 noundef 1) #3
  %31 = icmp sgt i32 %30, -1
  br i1 %31, label %32, label %r_mark_suffix_with_optional_s_consonant.exit

32:                                               ; preds = %29
  store i32 %30, ptr %8, align 8
  %33 = tail call i32 @in_grouping_b_U(ptr noundef nonnull %0, ptr noundef nonnull @g_vowel, i32 noundef 97, i32 noundef 305, i32 noundef 0) #3
  %.not63.i = icmp eq i32 %33, 0
  br i1 %.not63.i, label %34, label %r_mark_suffix_with_optional_s_consonant.exit

34:                                               ; preds = %32
  %35 = load i32, ptr %6, align 4
  %36 = add i32 %35, %.neg60.i
  br label %.critedge.sink.split.i

.critedge.sink.split.i:                           ; preds = %34, %.thread.i
  %.sink.i = phi i32 [ %19, %.thread.i ], [ %36, %34 ]
  store i32 %.sink.i, ptr %8, align 8
  br label %r_mark_suffix_with_optional_s_consonant.exit

r_mark_suffix_with_optional_s_consonant.exit:     ; preds = %.critedge.sink.split.i, %32, %29, %24, %1, %3
  %.1 = phi i32 [ 0, %1 ], [ 0, %3 ], [ 0, %32 ], [ 0, %29 ], [ 0, %24 ], [ 1, %.critedge.sink.split.i ]
  ret i32 %.1
}